target datalayout = "e-m:e-p270:32:32-p271:32:32-p272:64:64-i64:64-i128:128-f80:128-n8:16:32:64-S128"
target triple = "x86_64-pc-linux-gnu"

%struct._zend_op = type { ptr, %union._znode_op, %union._znode_op, %union._znode_op, i32, i32, i8, i8, i8, i8 }
%union._znode_op = type { i32 }
%struct._zend_cfg = type { i32, i32, ptr, ptr, ptr, i32 }
%struct._zend_basic_block = type { ptr, i32, i32, i32, i32, i32, i32, i32, i32, i32, i32, i32, [2 x i32] }

; Function Attrs: nounwind uwtable
define internal void @zend_mark_reachable(ptr noundef %0, ptr noundef %1, ptr noundef %2) #0 {
  %4 = alloca ptr, align 8
  %5 = alloca ptr, align 8
  %6 = alloca ptr, align 8
  %7 = alloca ptr, align 8
  %8 = alloca i32, align 4
  %9 = alloca ptr, align 8
  %10 = alloca i8, align 1
  store ptr %0, ptr %4, align 8
  store ptr %1, ptr %5, align 8
  store ptr %2, ptr %6, align 8
  %11 = load ptr, ptr %5, align 8
  %12 = getelementptr inbounds %struct._zend_cfg, ptr %11, i32 0, i32 2
  %13 = load ptr, ptr %12, align 8
  store ptr %13, ptr %7, align 8
  br label %14

14:                                               ; preds = %235, %3
  %15 = load ptr, ptr %6, align 8
  %16 = getelementptr inbounds %struct._zend_basic_block, ptr %15, i32 0, i32 1
  %17 = load i32, ptr %16, align 8
  %18 = or i32 %17, -2147483648
  store i32 %18, ptr %16, align 8
  %19 = load ptr, ptr %6, align 8
  %20 = getelementptr inbounds %struct._zend_basic_block, ptr %19, i32 0, i32 4
  %21 = load i32, ptr %20, align 4
  %22 = icmp eq i32 %21, 0
  br i1 %22, label %23, label %28

23:                                               ; preds = %14
  %24 = load ptr, ptr %6, align 8
  %25 = getelementptr inbounds %struct._zend_basic_block, ptr %24, i32 0, i32 1
  %26 = load i32, ptr %25, align 8
  %27 = or i32 %26, 8
  store i32 %27, ptr %25, align 8
  br label %236

28:                                               ; preds = %14
  store i32 0, ptr %8, align 4
  br label %29

29:                                               ; preds = %232, %28
  %30 = load i32, ptr %8, align 4
  %31 = load ptr, ptr %6, align 8
  %32 = getelementptr inbounds %struct._zend_basic_block, ptr %31, i32 0, i32 4
  %33 = load i32, ptr %32, align 4
  %34 = icmp slt i32 %30, %33
  br i1 %34, label %35, label %235

35:                                               ; preds = %29
  %36 = load ptr, ptr %7, align 8
  %37 = load ptr, ptr %6, align 8
  %38 = getelementptr inbounds %struct._zend_basic_block, ptr %37, i32 0, i32 0
  %39 = load ptr, ptr %38, align 8
  %40 = load i32, ptr %8, align 4
  %41 = sext i32 %40 to i64
  %42 = getelementptr inbounds i32, ptr %39, i64 %41
  %43 = load i32, ptr %42, align 4
  %44 = sext i32 %43 to i64
  %45 = getelementptr inbounds %struct._zend_basic_block, ptr %36, i64 %44
  store ptr %45, ptr %9, align 8
  %46 = load ptr, ptr %6, align 8
  %47 = getelementptr inbounds %struct._zend_basic_block, ptr %46, i32 0, i32 3
  %48 = load i32, ptr %47, align 8
  %49 = icmp ne i32 %48, 0
  br i1 %49, label %50, label %199

50:                                               ; preds = %35
  %51 = load ptr, ptr %4, align 8
  %52 = load ptr, ptr %6, align 8
  %53 = getelementptr inbounds %struct._zend_basic_block, ptr %52, i32 0, i32 2
  %54 = load i32, ptr %53, align 4
  %55 = load ptr, ptr %6, align 8
  %56 = getelementptr inbounds %struct._zend_basic_block, ptr %55, i32 0, i32 3
  %57 = load i32, ptr %56, align 8
  %58 = add i32 %54, %57
  %59 = sub i32 %58, 1
  %60 = zext i32 %59 to i64
  %61 = getelementptr inbounds %struct._zend_op, ptr %51, i64 %60
  %62 = getelementptr inbounds %struct._zend_op, ptr %61, i32 0, i32 6
  %63 = load i8, ptr %62, align 4
  store i8 %63, ptr %10, align 1
  %64 = load i8, ptr %10, align 1
  %65 = zext i8 %64 to i32
  %66 = icmp eq i32 %65, 195
  br i1 %66, label %67, label %72

67:                                               ; preds = %50
  %68 = load ptr, ptr %9, align 8
  %69 = getelementptr inbounds %struct._zend_basic_block, ptr %68, i32 0, i32 1
  %70 = load i32, ptr %69, align 8
  %71 = or i32 %70, 4
  store i32 %71, ptr %69, align 8
  br label %198

72:                                               ; preds = %50
  %73 = load i8, ptr %10, align 1
  %74 = zext i8 %73 to i32
  %75 = icmp eq i32 %74, 187
  br i1 %75, label %80, label %76

76:                                               ; preds = %72
  %77 = load i8, ptr %10, align 1
  %78 = zext i8 %77 to i32
  %79 = icmp eq i32 %78, 188
  br i1 %79, label %80, label %98

80:                                               ; preds = %76, %72
  %81 = load i32, ptr %8, align 4
  %82 = load ptr, ptr %6, align 8
  %83 = getelementptr inbounds %struct._zend_basic_block, ptr %82, i32 0, i32 4
  %84 = load i32, ptr %83, align 4
  %85 = sub nsw i32 %84, 1
  %86 = icmp eq i32 %81, %85
  br i1 %86, label %87, label %92

87:                                               ; preds = %80
  %88 = load ptr, ptr %9, align 8
  %89 = getelementptr inbounds %struct._zend_basic_block, ptr %88, i32 0, i32 1
  %90 = load i32, ptr %89, align 8
  %91 = or i32 %90, 6
  store i32 %91, ptr %89, align 8
  br label %97

92:                                               ; preds = %80
  %93 = load ptr, ptr %9, align 8
  %94 = getelementptr inbounds %struct._zend_basic_block, ptr %93, i32 0, i32 1
  %95 = load i32, ptr %94, align 8
  %96 = or i32 %95, 4
  store i32 %96, ptr %94, align 8
  br label %97

97:                                               ; preds = %92, %87
  br label %197

98:                                               ; preds = %76
  %99 = load ptr, ptr %6, align 8
  %100 = getelementptr inbounds %struct._zend_basic_block, ptr %99, i32 0, i32 4
  %101 = load i32, ptr %100, align 4
  %102 = icmp eq i32 %101, 1
  br i1 %102, label %103, label %178

103:                                              ; preds = %98
  %104 = load i8, ptr %10, align 1
  %105 = zext i8 %104 to i32
  %106 = icmp eq i32 %105, 42
  br i1 %106, label %107, label %112

107:                                              ; preds = %103
  %108 = load ptr, ptr %9, align 8
  %109 = getelementptr inbounds %struct._zend_basic_block, ptr %108, i32 0, i32 1
  %110 = load i32, ptr %109, align 8
  %111 = or i32 %110, 4
  store i32 %111, ptr %109, align 8
  br label %177

112:                                              ; preds = %103
  %113 = load ptr, ptr %9, align 8
  %114 = getelementptr inbounds %struct._zend_basic_block, ptr %113, i32 0, i32 1
  %115 = load i32, ptr %114, align 8
  %116 = or i32 %115, 2
  store i32 %116, ptr %114, align 8
  %117 = load ptr, ptr %5, align 8
  %118 = getelementptr inbounds %struct._zend_cfg, ptr %117, i32 0, i32 5
  %119 = load i32, ptr %118, align 8
  %120 = and i32 %119, 1073741824
  %121 = icmp ne i32 %120, 0
  br i1 %121, label %122, label %156

122:                                              ; preds = %112
  %123 = load i8, ptr %10, align 1
  %124 = zext i8 %123 to i32
  %125 = icmp eq i32 %124, 73
  br i1 %125, label %150, label %126

126:                                              ; preds = %122
  %127 = load i8, ptr %10, align 1
  %128 = zext i8 %127 to i32
  %129 = icmp eq i32 %128, 139
  br i1 %129, label %150, label %130

130:                                              ; preds = %126
  %131 = load i8, ptr %10, align 1
  %132 = zext i8 %131 to i32
  %133 = icmp eq i32 %132, 160
  br i1 %133, label %150, label %134

134:                                              ; preds = %130
  %135 = load i8, ptr %10, align 1
  %136 = zext i8 %135 to i32
  %137 = icmp eq i32 %136, 166
  br i1 %137, label %150, label %138

138:                                              ; preds = %134
  %139 = load i8, ptr %10, align 1
  %140 = zext i8 %139 to i32
  %141 = icmp eq i32 %140, 60
  br i1 %141, label %150, label %142

142:                                              ; preds = %138
  %143 = load i8, ptr %10, align 1
  %144 = zext i8 %143 to i32
  %145 = icmp eq i32 %144, 130
  br i1 %145, label %150, label %146

146:                                              ; preds = %142
  %147 = load i8, ptr %10, align 1
  %148 = zext i8 %147 to i32
  %149 = icmp eq i32 %148, 131
  br i1 %149, label %150, label %155

150:                                              ; preds = %146, %142, %138, %134, %130, %126, %122
  %151 = load ptr, ptr %9, align 8
  %152 = getelementptr inbounds %struct._zend_basic_block, ptr %151, i32 0, i32 1
  %153 = load i32, ptr %152, align 8
  %154 = or i32 %153, 16
  store i32 %154, ptr %152, align 8
  br label %155

155:                                              ; preds = %150, %146
  br label %156

156:                                              ; preds = %155, %112
  %157 = load ptr, ptr %5, align 8
  %158 = getelementptr inbounds %struct._zend_cfg, ptr %157, i32 0, i32 5
  %159 = load i32, ptr %158, align 8
  %160 = and i32 %159, 16777216
  %161 = icmp ne i32 %160, 0
  br i1 %161, label %162, label %176

162:                                              ; preds = %156
  %163 = load i8, ptr %10, align 1
  %164 = zext i8 %163 to i32
  %165 = icmp eq i32 %164, 63
  br i1 %165, label %170, label %166

166:                                              ; preds = %162
  %167 = load i8, ptr %10, align 1
  %168 = zext i8 %167 to i32
  %169 = icmp eq i32 %168, 64
  br i1 %169, label %170, label %175

170:                                              ; preds = %166, %162
  %171 = load ptr, ptr %9, align 8
  %172 = getelementptr inbounds %struct._zend_basic_block, ptr %171, i32 0, i32 1
  %173 = load i32, ptr %172, align 8
  %174 = or i32 %173, 4096
  store i32 %174, ptr %172, align 8
  br label %175

175:                                              ; preds = %170, %166
  br label %176

176:                                              ; preds = %175, %156
  br label %177

177:                                              ; preds = %176, %107
  br label %196

178:                                              ; preds = %98
  %179 = load ptr, ptr %6, align 8
  %180 = getelementptr inbounds %struct._zend_basic_block, ptr %179, i32 0, i32 4
  %181 = load i32, ptr %180, align 4
  %182 = icmp eq i32 %181, 2
  call void @llvm.assume(i1 %182)
  %183 = load i32, ptr %8, align 4
  %184 = icmp eq i32 %183, 0
  br i1 %184, label %185, label %190

185:                                              ; preds = %178
  %186 = load ptr, ptr %9, align 8
  %187 = getelementptr inbounds %struct._zend_basic_block, ptr %186, i32 0, i32 1
  %188 = load i32, ptr %187, align 8
  %189 = or i32 %188, 4
  store i32 %189, ptr %187, align 8
  br label %195

190:                                              ; preds = %178
  %191 = load ptr, ptr %9, align 8
  %192 = getelementptr inbounds %struct._zend_basic_block, ptr %191, i32 0, i32 1
  %193 = load i32, ptr %192, align 8
  %194 = or i32 %193, 2
  store i32 %194, ptr %192, align 8
  br label %195

195:                                              ; preds = %190, %185
  br label %196

196:                                              ; preds = %195, %177
  br label %197

197:                                              ; preds = %196, %97
  br label %198

198:                                              ; preds = %197, %67
  br label %204

199:                                              ; preds = %35
  %200 = load ptr, ptr %9, align 8
  %201 = getelementptr inbounds %struct._zend_basic_block, ptr %200, i32 0, i32 1
  %202 = load i32, ptr %201, align 8
  %203 = or i32 %202, 2
  store i32 %203, ptr %201, align 8
  br label %204

204:                                              ; preds = %199, %198
  %205 = load i32, ptr %8, align 4
  %206 = load ptr, ptr %6, align 8
  %207 = getelementptr inbounds %struct._zend_basic_block, ptr %206, i32 0, i32 4
  %208 = load i32, ptr %207, align 4
  %209 = sub nsw i32 %208, 1
  %210 = icmp eq i32 %205, %209
  br i1 %210, label %211, label %220

211:                                              ; preds = %204
  %212 = load ptr, ptr %9, align 8
  %213 = getelementptr inbounds %struct._zend_basic_block, ptr %212, i32 0, i32 1
  %214 = load i32, ptr %213, align 8
  %215 = and i32 %214, -2147483648
  %216 = icmp ne i32 %215, 0
  br i1 %216, label %217, label %218

217:                                              ; preds = %211
  br label %236

218:                                              ; preds = %211
  %219 = load ptr, ptr %9, align 8
  store ptr %219, ptr %6, align 8
  br label %235

220:                                              ; preds = %204
  %221 = load ptr, ptr %9, align 8
  %222 = getelementptr inbounds %struct._zend_basic_block, ptr %221, i32 0, i32 1
  %223 = load i32, ptr %222, align 8
  %224 = and i32 %223, -2147483648
  %225 = icmp ne i32 %224, 0
  br i1 %225, label %230, label %226

226:                                              ; preds = %220
  %227 = load ptr, ptr %4, align 8
  %228 = load ptr, ptr %5, align 8
  %229 = load ptr, ptr %9, align 8
  call void @zend_mark_reachable(ptr noundef %227, ptr noundef %228, ptr noundef %229)
  br label %230

230:                                              ; preds = %226, %220
  br label %231

231:                                              ; preds = %230
  br label %232

232:                                              ; preds = %231
  %233 = load i32, ptr %8, align 4
  %234 = add nsw i32 %233, 1
  store i32 %234, ptr %8, align 4
  br label %29

235:                                              ; preds = %218, %29
  br label %14

236:                                              ; preds = %217, %23
  ret void
}