; Function Attrs: nofree nosync nounwind memory(readwrite, inaccessiblemem: write) uwtable
define internal fastcc void @zend_mark_reachable(ptr nocapture noundef readonly %0, ptr nocapture noundef readonly %1, ptr nocapture noundef %2) unnamed_addr #5 {
  %4 = getelementptr inbounds i8, ptr %1, i64 8
  %5 = load ptr, ptr %4, align 8
  %6 = getelementptr inbounds i8, ptr %2, i64 8
  %7 = load i32, ptr %6, align 8
  %8 = or i32 %7, -2147483648
  store i32 %8, ptr %6, align 8
  %9 = getelementptr inbounds i8, ptr %2, i64 20
  %10 = load i32, ptr %9, align 4
  %11 = icmp eq i32 %10, 0
  br i1 %11, label %._crit_edge, label %.preheader.lr.ph

.preheader.lr.ph:                                 ; preds = %3
  %12 = getelementptr inbounds i8, ptr %1, i64 32
  br label %.preheader

.preheader:                                       ; preds = %.preheader.lr.ph, %.loopexit
  %13 = phi i32 [ %10, %.preheader.lr.ph ], [ %103, %.loopexit ]
  %14 = phi ptr [ %9, %.preheader.lr.ph ], [ %102, %.loopexit ]
  %.089 = phi ptr [ %2, %.preheader.lr.ph ], [ %.1, %.loopexit ]
  %15 = icmp sgt i32 %13, 0
  br i1 %15, label %.lr.ph, label %.loopexit

.lr.ph:                                           ; preds = %.preheader
  %16 = getelementptr inbounds i8, ptr %.089, i64 16
  %17 = getelementptr inbounds i8, ptr %.089, i64 12
  br label %20

._crit_edge:                                      ; preds = %.loopexit, %3
  %.0.lcssa = phi ptr [ %2, %3 ], [ %.1, %.loopexit ]
  %.lcssa84 = phi i32 [ %7, %3 ], [ %100, %.loopexit ]
  %18 = getelementptr inbounds i8, ptr %.0.lcssa, i64 8
  %19 = or i32 %.lcssa84, -2147483640
  store i32 %19, ptr %18, align 8
  br label %.loopexit83

20:                                               ; preds = %.lr.ph, %96
  %indvars.iv = phi i64 [ 0, %.lr.ph ], [ %indvars.iv.next, %96 ]
  %21 = phi i32 [ %13, %.lr.ph ], [ %.pr, %96 ]
  %22 = load ptr, ptr %.089, align 8
  %23 = getelementptr inbounds i32, ptr %22, i64 %indvars.iv
  %24 = load i32, ptr %23, align 4
  %25 = sext i32 %24 to i64
  %26 = getelementptr inbounds %struct._zend_basic_block, ptr %5, i64 %25
  %27 = load i32, ptr %16, align 8
  %.not = icmp eq i32 %27, 0
  br i1 %.not, label %83, label %28

28:                                               ; preds = %20
  %29 = load i32, ptr %17, align 4
  %30 = add i32 %27, -1
  %31 = add i32 %30, %29
  %32 = zext i32 %31 to i64
  %33 = getelementptr inbounds %struct._zend_op, ptr %0, i64 %32, i32 6
  %34 = load i8, ptr %33, align 4
  %35 = icmp eq i8 %34, -61
  br i1 %35, label %36, label %40

36:                                               ; preds = %28
  %37 = getelementptr inbounds i8, ptr %26, i64 8
  %38 = load i32, ptr %37, align 8
  %39 = or i32 %38, 4
  store i32 %39, ptr %37, align 8
  br label %87

40:                                               ; preds = %28
  %41 = add i8 %34, 69
  %or.cond = icmp ult i8 %41, 2
  br i1 %or.cond, label %42, label %52

42:                                               ; preds = %40
  %43 = add nsw i32 %21, -1
  %44 = zext i32 %43 to i64
  %45 = icmp eq i64 %indvars.iv, %44
  %46 = getelementptr inbounds i8, ptr %26, i64 8
  %47 = load i32, ptr %46, align 8
  br i1 %45, label %48, label %50

48:                                               ; preds = %42
  %49 = or i32 %47, 6
  store i32 %49, ptr %46, align 8
  br label %87

50:                                               ; preds = %42
  %51 = or i32 %47, 4
  store i32 %51, ptr %46, align 8
  br label %87

52:                                               ; preds = %40
  %53 = icmp eq i32 %21, 1
  br i1 %53, label %54, label %74

54:                                               ; preds = %52
  %55 = icmp eq i8 %34, 42
  %56 = getelementptr inbounds i8, ptr %26, i64 8
  %57 = load i32, ptr %56, align 8
  br i1 %55, label %58, label %60

58:                                               ; preds = %54
  %59 = or i32 %57, 4
  store i32 %59, ptr %56, align 8
  br label %87

60:                                               ; preds = %54
  %61 = or i32 %57, 2
  store i32 %61, ptr %56, align 8
  %62 = load i32, ptr %12, align 8
  %63 = and i32 %62, 1073741824
  %.not78 = icmp eq i32 %63, 0
  br i1 %.not78, label %67, label %64

64:                                               ; preds = %60
  switch i8 %34, label %67 [
    i8 -90, label %65
    i8 -96, label %65
    i8 -117, label %65
    i8 -125, label %65
    i8 -126, label %65
    i8 73, label %65
    i8 60, label %65
  ]

65:                                               ; preds = %64, %64, %64, %64, %64, %64, %64
  %66 = or i32 %57, 18
  store i32 %66, ptr %56, align 8
  %.pre = load i32, ptr %12, align 8
  br label %67

67:                                               ; preds = %64, %65, %60
  %68 = phi i32 [ %61, %64 ], [ %66, %65 ], [ %61, %60 ]
  %69 = phi i32 [ %62, %64 ], [ %.pre, %65 ], [ %62, %60 ]
  %70 = and i32 %69, 16777216
  %.not79 = icmp ne i32 %70, 0
  %71 = add i8 %34, -63
  %or.cond23 = icmp ult i8 %71, 2
  %or.cond82 = and i1 %or.cond23, %.not79
  br i1 %or.cond82, label %72, label %87

72:                                               ; preds = %67
  %73 = or i32 %68, 4096
  store i32 %73, ptr %56, align 8
  br label %87

74:                                               ; preds = %52
  %75 = icmp eq i32 %21, 2
  tail call void @llvm.assume(i1 %75)
  %76 = icmp eq i64 %indvars.iv, 0
  %77 = getelementptr inbounds i8, ptr %26, i64 8
  %78 = load i32, ptr %77, align 8
  br i1 %76, label %79, label %81

79:                                               ; preds = %74
  %80 = or i32 %78, 4
  store i32 %80, ptr %77, align 8
  br label %87

81:                                               ; preds = %74
  %82 = or i32 %78, 2
  store i32 %82, ptr %77, align 8
  br label %87

83:                                               ; preds = %20
  %84 = getelementptr inbounds i8, ptr %26, i64 8
  %85 = load i32, ptr %84, align 8
  %86 = or i32 %85, 2
  store i32 %86, ptr %84, align 8
  br label %87

87:                                               ; preds = %36, %67, %72, %58, %81, %79, %48, %50, %83
  %88 = phi i32 [ %39, %36 ], [ %68, %67 ], [ %73, %72 ], [ %59, %58 ], [ %82, %81 ], [ %80, %79 ], [ %49, %48 ], [ %51, %50 ], [ %86, %83 ]
  %89 = load i32, ptr %14, align 4
  %90 = add nsw i32 %89, -1
  %91 = zext i32 %90 to i64
  %92 = icmp eq i64 %indvars.iv, %91
  %.not81 = icmp sgt i32 %88, -1
  br i1 %92, label %93, label %94

93:                                               ; preds = %87
  br i1 %.not81, label %.loopexit, label %.loopexit83

94:                                               ; preds = %87
  br i1 %.not81, label %95, label %96

95:                                               ; preds = %94
  tail call fastcc void @zend_mark_reachable(ptr noundef %0, ptr noundef %1, ptr noundef nonnull %26)
  %.pr.pre = load i32, ptr %14, align 4
  br label %96

96:                                               ; preds = %95, %94
  %.pr = phi i32 [ %.pr.pre, %95 ], [ %89, %94 ]
  %indvars.iv.next = add nuw nsw i64 %indvars.iv, 1
  %97 = sext i32 %.pr to i64
  %98 = icmp slt i64 %indvars.iv.next, %97
  br i1 %98, label %20, label %.loopexit

.loopexit:                                        ; preds = %96, %.preheader, %93
  %.1 = phi ptr [ %26, %93 ], [ %.089, %.preheader ], [ %.089, %96 ]
  %99 = getelementptr inbounds i8, ptr %.1, i64 8
  %100 = load i32, ptr %99, align 8
  %101 = or i32 %100, -2147483648
  store i32 %101, ptr %99, align 8
  %102 = getelementptr inbounds i8, ptr %.1, i64 20
  %103 = load i32, ptr %102, align 4
  %104 = icmp eq i32 %103, 0
  br i1 %104, label %._crit_edge, label %.preheader

.loopexit83:                                      ; preds = %93, %._crit_edge
  ret void
}